target datalayout = "e-m:e-p270:32:32-p271:32:32-p272:64:64-i64:64-i128:128-f80:128-n8:16:32:64-S128"
target triple = "x86_64-pc-linux-gnu"

%struct.rb_data_type_struct = type { ptr, %struct.anon.14, ptr, ptr, i64 }
%struct.anon.14 = type { ptr, ptr, ptr, ptr, [1 x ptr] }
%struct.RBasic = type { i64, i64 }
%struct.RData = type { %struct.RBasic, ptr, ptr, ptr }
%struct.RArray = type { %struct.RBasic, %union.anon.26 }
%union.anon.26 = type { %struct.anon.27 }
%struct.anon.27 = type { i64, %union.anon.28, ptr }
%union.anon.28 = type { i64 }

@proc_data_type = internal constant %struct.rb_data_type_struct { ptr @.str.44, %struct.anon.14 { ptr @proc_mark_and_move, ptr inttoptr (i64 -1 to ptr), ptr @proc_memsize, ptr @proc_mark_and_move, [1 x ptr] zeroinitializer }, ptr null, ptr null, i64 33 }, align 8
@rb_eArgError = external global i64, align 8
@ruby_current_ec = external thread_local global ptr, align 8
@.str.71 = private unnamed_addr constant [25 x i8] c"too many arguments (%lu)\00", align 1

; Function Attrs: inlinehint nounwind sspstrong willreturn memory(read) uwtable
define internal i64 @RARRAY_EMBED_LEN(i64 noundef %0) #7 {
  %2 = alloca i64, align 8
  %3 = alloca i64, align 8
  store i64 %0, ptr %2, align 8, !tbaa !7
  call void @llvm.lifetime.start.p0(i64 8, ptr %3) #25
  %4 = load i64, ptr %2, align 8, !tbaa !7
  %5 = inttoptr i64 %4 to ptr
  %6 = getelementptr inbounds nuw %struct.RBasic, ptr %5, i32 0, i32 0
  %7 = load i64, ptr %6, align 8, !tbaa !89
  store i64 %7, ptr %3, align 8, !tbaa !7
  %8 = load i64, ptr %3, align 8, !tbaa !7
  %9 = and i64 %8, 4161536
  store i64 %9, ptr %3, align 8, !tbaa !7
  %10 = load i64, ptr %3, align 8, !tbaa !7
  %11 = lshr i64 %10, 15
  store i64 %11, ptr %3, align 8, !tbaa !7
  %12 = load i64, ptr %3, align 8, !tbaa !7
  call void @llvm.lifetime.end.p0(i64 8, ptr %3) #25
  ret i64 %12
}

; Function Attrs: inlinehint nounwind sspstrong willreturn memory(read) uwtable
define internal i64 @RB_FL_TEST_RAW(i64 noundef %0, i64 noundef %1) #7 {
  %3 = alloca i64, align 8
  %4 = alloca i64, align 8
  store i64 %0, ptr %3, align 8, !tbaa !7
  store i64 %1, ptr %4, align 8, !tbaa !7
  %5 = load i64, ptr %3, align 8, !tbaa !7
  %6 = inttoptr i64 %5 to ptr
  %7 = getelementptr inbounds nuw %struct.RBasic, ptr %6, i32 0, i32 0
  %8 = load i64, ptr %7, align 8, !tbaa !89
  %9 = load i64, ptr %4, align 8, !tbaa !7
  %10 = and i64 %8, %9
  ret i64 %10
}

; Function Attrs: inlinehint nounwind sspstrong uwtable
define internal i32 @check_argc(i64 noundef %0) #3 {
  %2 = alloca i64, align 8
  store i64 %0, ptr %2, align 8, !tbaa !7
  %3 = load i64, ptr %2, align 8, !tbaa !7
  %4 = icmp sgt i64 %3, 2147483647
  br i1 %4, label %8, label %5

5:                                                ; preds = %1
  %6 = load i64, ptr %2, align 8, !tbaa !7
  %7 = icmp slt i64 %6, 0
  br i1 %7, label %8, label %11

8:                                                ; preds = %5, %1
  %9 = load i64, ptr @rb_eArgError, align 8, !tbaa !7
  %10 = load i64, ptr %2, align 8, !tbaa !7
  call void (i64, ptr, ...) @rb_raise(i64 noundef %9, ptr noundef @.str.71, i64 noundef %10) #27
  unreachable

11:                                               ; preds = %5
  %12 = load i64, ptr %2, align 8, !tbaa !7
  %13 = trunc i64 %12 to i32
  ret i32 %13
}

; Function Attrs: inlinehint nounwind sspstrong willreturn memory(read) uwtable
define internal i64 @rb_array_len(i64 noundef %0) #7 {
  %2 = alloca i64, align 8
  %3 = alloca i64, align 8
  store i64 %0, ptr %3, align 8, !tbaa !7
  %4 = load i64, ptr %3, align 8, !tbaa !7
  %5 = call zeroext i1 @RB_FL_ANY_RAW(i64 noundef %4, i64 noundef 8192) #28
  br i1 %5, label %6, label %9

6:                                                ; preds = %1
  %7 = load i64, ptr %3, align 8, !tbaa !7
  %8 = call i64 @RARRAY_EMBED_LEN(i64 noundef %7) #28
  store i64 %8, ptr %2, align 8
  br label %15

9:                                                ; preds = %1
  %10 = load i64, ptr %3, align 8, !tbaa !7
  %11 = inttoptr i64 %10 to ptr
  %12 = getelementptr inbounds nuw %struct.RArray, ptr %11, i32 0, i32 1
  %13 = getelementptr inbounds nuw %struct.anon.27, ptr %12, i32 0, i32 0
  %14 = load i64, ptr %13, align 8, !tbaa !34
  store i64 %14, ptr %2, align 8
  br label %15

15:                                               ; preds = %9, %6
  %16 = load i64, ptr %2, align 8
  ret i64 %16
}

; Function Attrs: inlinehint nounwind sspstrong willreturn memory(none) uwtable
define internal zeroext i1 @RB_NIL_P(i64 noundef %0) #12 {
  %2 = alloca i64, align 8
  store i64 %0, ptr %2, align 8, !tbaa !7
  %3 = load i64, ptr %2, align 8, !tbaa !7
  %4 = icmp eq i64 %3, 4
  ret i1 %4
}

; Function Attrs: inlinehint nounwind sspstrong willreturn memory(read) uwtable
define internal zeroext i1 @RB_FL_ANY_RAW(i64 noundef %0, i64 noundef %1) #7 {
  %3 = alloca i64, align 8
  %4 = alloca i64, align 8
  store i64 %0, ptr %3, align 8, !tbaa !7
  store i64 %1, ptr %4, align 8, !tbaa !7
  %5 = load i64, ptr %3, align 8, !tbaa !7
  %6 = load i64, ptr %4, align 8, !tbaa !7
  %7 = call i64 @RB_FL_TEST_RAW(i64 noundef %5, i64 noundef %6) #28
  %8 = icmp ne i64 %7, 0
  ret i1 %8
}

; Function Attrs: nounwind sspstrong uwtable
define dso_local i64 @rb_proc_call_kw(i64 noundef %0, i64 noundef %1, i32 noundef %2) #0 {
  %4 = alloca i64, align 8
  %5 = alloca i64, align 8
  %6 = alloca i32, align 4
  %7 = alloca i64, align 8
  %8 = alloca ptr, align 8
  %9 = alloca i32, align 4
  %10 = alloca ptr, align 8
  %11 = alloca ptr, align 8
  %12 = alloca ptr, align 8
  %13 = alloca ptr, align 8
  %14 = alloca ptr, align 8
  store i64 %0, ptr %4, align 8, !tbaa !7
  store i64 %1, ptr %5, align 8, !tbaa !7
  store i32 %2, ptr %6, align 4, !tbaa !36
  call void @llvm.lifetime.start.p0(i64 8, ptr %7) #25
  call void @llvm.lifetime.start.p0(i64 8, ptr %8) #25
  call void @llvm.lifetime.start.p0(i64 4, ptr %9) #25
  %15 = load i64, ptr %5, align 8, !tbaa !7
  %16 = call i64 @rb_array_len(i64 noundef %15) #28
  %17 = call i32 @check_argc(i64 noundef %16)
  store i32 %17, ptr %9, align 4, !tbaa !36
  call void @llvm.lifetime.start.p0(i64 8, ptr %10) #25
  %18 = load i64, ptr %5, align 8, !tbaa !7
  %19 = call ptr @rb_array_const_ptr(i64 noundef %18) #28
  store ptr %19, ptr %10, align 8, !tbaa !35
  %20 = load i64, ptr %4, align 8, !tbaa !7
  %21 = inttoptr i64 %20 to ptr
  %22 = getelementptr inbounds nuw %struct.RData, ptr %21, i32 0, i32 3
  %23 = load ptr, ptr %22, align 8, !tbaa !17
  store ptr %23, ptr %8, align 8, !tbaa !11
  %24 = call ptr @rb_current_execution_context(i1 noundef zeroext true)
  %25 = load ptr, ptr %8, align 8, !tbaa !11
  %26 = load i32, ptr %9, align 4, !tbaa !36
  %27 = load ptr, ptr %10, align 8, !tbaa !35
  %28 = load i32, ptr %6, align 4, !tbaa !36
  %29 = call i64 @rb_vm_invoke_proc(ptr noundef %24, ptr noundef %25, i32 noundef %26, ptr noundef %27, i32 noundef %28, i64 noundef 0)
  store i64 %29, ptr %7, align 8, !tbaa !7
  call void @llvm.lifetime.start.p0(i64 8, ptr %11) #25
  store ptr %4, ptr %11, align 8, !tbaa !35
  call void asm sideeffect "", "*m,~{dirflag},~{fpsr},~{flags}"(ptr elementtype(ptr) %11) #25, !srcloc !45
  %30 = load ptr, ptr %11, align 8, !tbaa !35
  store ptr %30, ptr %12, align 8, !tbaa !35
  call void @llvm.lifetime.end.p0(i64 8, ptr %11) #25
  %31 = load ptr, ptr %12, align 8, !tbaa !35
  %32 = load volatile i64, ptr %31, align 8, !tbaa !7
  call void @llvm.lifetime.start.p0(i64 8, ptr %13) #25
  store ptr %5, ptr %13, align 8, !tbaa !35
  call void asm sideeffect "", "*m,~{dirflag},~{fpsr},~{flags}"(ptr elementtype(ptr) %13) #25, !srcloc !46
  %33 = load ptr, ptr %13, align 8, !tbaa !35
  store ptr %33, ptr %14, align 8, !tbaa !35
  call void @llvm.lifetime.end.p0(i64 8, ptr %13) #25
  %34 = load ptr, ptr %14, align 8, !tbaa !35
  %35 = load volatile i64, ptr %34, align 8, !tbaa !7
  %36 = load i64, ptr %7, align 8, !tbaa !7
  call void @llvm.lifetime.end.p0(i64 8, ptr %10) #25
  call void @llvm.lifetime.end.p0(i64 4, ptr %9) #25
  call void @llvm.lifetime.end.p0(i64 8, ptr %8) #25
  call void @llvm.lifetime.end.p0(i64 8, ptr %7) #25
  ret i64 %36
}

; Function Attrs: nounwind sspstrong uwtable
define internal i64 @proc_to_block_handler(i64 noundef %0) #0 {
  %2 = alloca i64, align 8
  store i64 %0, ptr %2, align 8, !tbaa !7
  %3 = load i64, ptr %2, align 8, !tbaa !7
  %4 = call zeroext i1 @RB_NIL_P(i64 noundef %3) #29
  br i1 %4, label %5, label %6

5:                                                ; preds = %1
  br label %8

6:                                                ; preds = %1
  %7 = load i64, ptr %2, align 8, !tbaa !7
  br label %8

8:                                                ; preds = %6, %5
  %9 = phi i64 [ 0, %5 ], [ %7, %6 ]
  ret i64 %9
}

; Function Attrs: inlinehint nounwind sspstrong uwtable
define internal ptr @rb_current_execution_context(i1 noundef zeroext %0) #3 {
  %2 = alloca i8, align 1
  %3 = alloca ptr, align 8
  %4 = zext i1 %0 to i8
  store i8 %4, ptr %2, align 1, !tbaa !32
  call void @llvm.lifetime.start.p0(i64 8, ptr %3) #25
  %5 = call align 8 ptr @llvm.threadlocal.address.p0(ptr align 8 @ruby_current_ec)
  %6 = load ptr, ptr %5, align 8, !tbaa !19
  store ptr %6, ptr %3, align 8, !tbaa !19
  %7 = load ptr, ptr %3, align 8, !tbaa !19
  call void @llvm.lifetime.end.p0(i64 8, ptr %3) #25
  ret ptr %7
}

; Function Attrs: inlinehint nounwind sspstrong willreturn memory(read) uwtable
define internal ptr @rb_array_const_ptr(i64 noundef %0) #7 {
  %2 = alloca ptr, align 8
  %3 = alloca i64, align 8
  store i64 %0, ptr %3, align 8, !tbaa !7
  %4 = load i64, ptr %3, align 8, !tbaa !7
  %5 = call zeroext i1 @RB_FL_ANY_RAW(i64 noundef %4, i64 noundef 8192) #28
  br i1 %5, label %6, label %11

6:                                                ; preds = %1
  %7 = load i64, ptr %3, align 8, !tbaa !7
  %8 = inttoptr i64 %7 to ptr
  %9 = getelementptr inbounds nuw %struct.RArray, ptr %8, i32 0, i32 1
  %10 = getelementptr inbounds [1 x i64], ptr %9, i64 0, i64 0
  store ptr %10, ptr %2, align 8
  br label %17

11:                                               ; preds = %1
  %12 = load i64, ptr %3, align 8, !tbaa !7
  %13 = inttoptr i64 %12 to ptr
  %14 = getelementptr inbounds nuw %struct.RArray, ptr %13, i32 0, i32 1
  %15 = getelementptr inbounds nuw %struct.anon.27, ptr %14, i32 0, i32 2
  %16 = load ptr, ptr %15, align 8, !tbaa !34
  store ptr %16, ptr %2, align 8
  br label %17

17:                                               ; preds = %11, %6
  %18 = load ptr, ptr %2, align 8
  ret ptr %18
}

; Function Attrs: nounwind sspstrong uwtable
define dso_local i64 @rb_proc_call(i64 noundef %0, i64 noundef %1) #0 {
  %3 = alloca i64, align 8
  %4 = alloca i64, align 8
  store i64 %0, ptr %3, align 8, !tbaa !7
  store i64 %1, ptr %4, align 8, !tbaa !7
  %5 = load i64, ptr %3, align 8, !tbaa !7
  %6 = load i64, ptr %4, align 8, !tbaa !7
  %7 = call i64 @rb_proc_call_kw(i64 noundef %5, i64 noundef %6, i32 noundef 0)
  ret i64 %7
}

; Function Attrs: nounwind sspstrong uwtable
define dso_local i64 @rb_proc_call_with_block_kw(i64 noundef %0, i32 noundef %1, ptr noundef %2, i64 noundef %3, i32 noundef %4) #0 {
  %6 = alloca i64, align 8
  %7 = alloca i32, align 4
  %8 = alloca ptr, align 8
  %9 = alloca i64, align 8
  %10 = alloca i32, align 4
  %11 = alloca ptr, align 8
  %12 = alloca i64, align 8
  %13 = alloca ptr, align 8
  %14 = alloca ptr, align 8
  %15 = alloca ptr, align 8
  store i64 %0, ptr %6, align 8, !tbaa !7
  store i32 %1, ptr %7, align 4, !tbaa !36
  store ptr %2, ptr %8, align 8, !tbaa !35
  store i64 %3, ptr %9, align 8, !tbaa !7
  store i32 %4, ptr %10, align 4, !tbaa !36
  call void @llvm.lifetime.start.p0(i64 8, ptr %11) #25
  %16 = call ptr @rb_current_execution_context(i1 noundef zeroext true)
  store ptr %16, ptr %11, align 8, !tbaa !19
  call void @llvm.lifetime.start.p0(i64 8, ptr %12) #25
  call void @llvm.lifetime.start.p0(i64 8, ptr %13) #25
  %17 = load i64, ptr %6, align 8, !tbaa !7
  %18 = inttoptr i64 %17 to ptr
  %19 = getelementptr inbounds nuw %struct.RData, ptr %18, i32 0, i32 3
  %20 = load ptr, ptr %19, align 8, !tbaa !17
  store ptr %20, ptr %13, align 8, !tbaa !11
  %21 = load ptr, ptr %11, align 8, !tbaa !19
  %22 = load ptr, ptr %13, align 8, !tbaa !11
  %23 = load i32, ptr %7, align 4, !tbaa !36
  %24 = load ptr, ptr %8, align 8, !tbaa !35
  %25 = load i32, ptr %10, align 4, !tbaa !36
  %26 = load i64, ptr %9, align 8, !tbaa !7
  %27 = call i64 @proc_to_block_handler(i64 noundef %26)
  %28 = call i64 @rb_vm_invoke_proc(ptr noundef %21, ptr noundef %22, i32 noundef %23, ptr noundef %24, i32 noundef %25, i64 noundef %27)
  store i64 %28, ptr %12, align 8, !tbaa !7
  call void @llvm.lifetime.start.p0(i64 8, ptr %14) #25
  store ptr %6, ptr %14, align 8, !tbaa !35
  call void asm sideeffect "", "*m,~{dirflag},~{fpsr},~{flags}"(ptr elementtype(ptr) %14) #25, !srcloc !47
  %29 = load ptr, ptr %14, align 8, !tbaa !35
  store ptr %29, ptr %15, align 8, !tbaa !35
  call void @llvm.lifetime.end.p0(i64 8, ptr %14) #25
  %30 = load ptr, ptr %15, align 8, !tbaa !35
  %31 = load volatile i64, ptr %30, align 8, !tbaa !7
  %32 = load i64, ptr %12, align 8, !tbaa !7
  call void @llvm.lifetime.end.p0(i64 8, ptr %13) #25
  call void @llvm.lifetime.end.p0(i64 8, ptr %12) #25
  call void @llvm.lifetime.end.p0(i64 8, ptr %11) #25
  ret i64 %32
}

; Function Attrs: nounwind sspstrong uwtable
define dso_local i64 @rb_obj_is_proc(i64 noundef %0) #0 {
  %2 = alloca i64, align 8
  store i64 %0, ptr %2, align 8, !tbaa !7
  %3 = load i64, ptr %2, align 8, !tbaa !7
  %4 = call i32 @rb_typeddata_is_kind_of(i64 noundef %3, ptr noundef @proc_data_type)
  %5 = icmp ne i32 %4, 0
  %6 = select i1 %5, i64 20, i64 0
  ret i64 %6
}

; Function Attrs: inlinehint nounwind sspstrong willreturn memory(read) uwtable
define internal i64 @RARRAY_AREF(i64 noundef %0, i64 noundef %1) #7 {
  %3 = alloca i64, align 8
  %4 = alloca i64, align 8
  %5 = alloca i64, align 8
  store i64 %0, ptr %3, align 8, !tbaa !7
  store i64 %1, ptr %4, align 8, !tbaa !7
  call void @llvm.lifetime.start.p0(i64 8, ptr %5) #25
  %6 = load i64, ptr %3, align 8, !tbaa !7
  %7 = call ptr @rb_array_const_ptr(i64 noundef %6) #28
  %8 = load i64, ptr %4, align 8, !tbaa !7
  %9 = getelementptr i64, ptr %7, i64 %8
  %10 = load i64, ptr %9, align 8, !tbaa !7
  store i64 %10, ptr %5, align 8, !tbaa !7
  %11 = load i64, ptr %5, align 8, !tbaa !7
  call void @llvm.lifetime.end.p0(i64 8, ptr %5) #25
  ret i64 %11
}

; Function Attrs: nounwind sspstrong uwtable
define internal i64 @compose(i64 noundef %0, i64 noundef %1, i32 noundef %2, ptr noundef %3, i64 noundef %4) #0 {
  %6 = alloca i64, align 8
  %7 = alloca i64, align 8
  %8 = alloca i64, align 8
  %9 = alloca i32, align 4
  %10 = alloca ptr, align 8
  %11 = alloca i64, align 8
  %12 = alloca i64, align 8
  %13 = alloca i64, align 8
  %14 = alloca i64, align 8
  %15 = alloca i32, align 4
  store i64 %0, ptr %7, align 8, !tbaa !7
  store i64 %1, ptr %8, align 8, !tbaa !7
  store i32 %2, ptr %9, align 4, !tbaa !36
  store ptr %3, ptr %10, align 8, !tbaa !35
  store i64 %4, ptr %11, align 8, !tbaa !7
  call void @llvm.lifetime.start.p0(i64 8, ptr %12) #25
  call void @llvm.lifetime.start.p0(i64 8, ptr %13) #25
  call void @llvm.lifetime.start.p0(i64 8, ptr %14) #25
  %16 = load i64, ptr %8, align 8, !tbaa !7
  %17 = call i64 @RARRAY_AREF(i64 noundef %16, i64 noundef 0) #28
  store i64 %17, ptr %12, align 8, !tbaa !7
  %18 = load i64, ptr %8, align 8, !tbaa !7
  %19 = call i64 @RARRAY_AREF(i64 noundef %18, i64 noundef 1) #28
  store i64 %19, ptr %13, align 8, !tbaa !7
  %20 = load i64, ptr %13, align 8, !tbaa !7
  %21 = call i64 @rb_obj_is_proc(i64 noundef %20)
  %22 = icmp ne i64 %21, 0
  br i1 %22, label %23, label %34

23:                                               ; preds = %5
  %24 = load i64, ptr %13, align 8, !tbaa !7
  %25 = load i32, ptr %9, align 4, !tbaa !36
  %26 = load ptr, ptr %10, align 8, !tbaa !35
  %27 = load i64, ptr %11, align 8, !tbaa !7
  %28 = call i32 @rb_keyword_given_p()
  %29 = icmp ne i32 %28, 0
  %30 = xor i1 %29, true
  %31 = xor i1 %30, true
  %32 = zext i1 %31 to i32
  %33 = call i64 @rb_proc_call_with_block_kw(i64 noundef %24, i32 noundef %25, ptr noundef %26, i64 noundef %27, i32 noundef %32)
  store i64 %33, ptr %14, align 8, !tbaa !7
  br label %45

34:                                               ; preds = %5
  %35 = load i64, ptr %13, align 8, !tbaa !7
  %36 = load i32, ptr %9, align 4, !tbaa !36
  %37 = load ptr, ptr %10, align 8, !tbaa !35
  %38 = load i64, ptr %11, align 8, !tbaa !7
  %39 = call i32 @rb_keyword_given_p()
  %40 = icmp ne i32 %39, 0
  %41 = xor i1 %40, true
  %42 = xor i1 %41, true
  %43 = zext i1 %42 to i32
  %44 = call i64 @rb_funcall_with_block_kw(i64 noundef %35, i64 noundef 3457, i32 noundef %36, ptr noundef %37, i64 noundef %38, i32 noundef %43)
  store i64 %44, ptr %14, align 8, !tbaa !7
  br label %45

45:                                               ; preds = %34, %23
  %46 = load i64, ptr %12, align 8, !tbaa !7
  %47 = call i64 @rb_obj_is_proc(i64 noundef %46)
  %48 = icmp ne i64 %47, 0
  br i1 %48, label %49, label %54

49:                                               ; preds = %45
  %50 = load i64, ptr %12, align 8, !tbaa !7
  %51 = load i64, ptr %14, align 8, !tbaa !7
  %52 = call i64 (i64, ...) @rb_ary_new_from_args(i64 noundef 1, i64 noundef %51)
  %53 = call i64 @rb_proc_call(i64 noundef %50, i64 noundef %52)
  store i64 %53, ptr %6, align 8
  store i32 1, ptr %15, align 4
  br label %57

54:                                               ; preds = %45
  %55 = load i64, ptr %12, align 8, !tbaa !7
  %56 = call i64 @rb_funcallv(i64 noundef %55, i64 noundef 3457, i32 noundef 1, ptr noundef %14)
  store i64 %56, ptr %6, align 8
  store i32 1, ptr %15, align 4
  br label %57

57:                                               ; preds = %54, %49
  call void @llvm.lifetime.end.p0(i64 8, ptr %14) #25
  call void @llvm.lifetime.end.p0(i64 8, ptr %13) #25
  call void @llvm.lifetime.end.p0(i64 8, ptr %12) #25
  %58 = load i64, ptr %6, align 8
  ret i64 %58
}