; Function Attrs: nounwind sspstrong uwtable
define internal i64 @compose(i64 %0, i64 noundef %1, i32 noundef %2, ptr noundef %3, i64 noundef %4) #0 {
  %6 = alloca i64, align 8
  %7 = alloca i64, align 8
  %8 = alloca ptr, align 8
  %9 = alloca ptr, align 8
  %10 = alloca i64, align 8
  %11 = alloca ptr, align 8
  %12 = alloca i64, align 8
  call void @llvm.lifetime.start.p0(i64 8, ptr nonnull %12) #21
  %13 = inttoptr i64 %1 to ptr
  %14 = load i64, ptr %13, align 8, !tbaa !42
  %15 = and i64 %14, 8192
  %.not.i.i = icmp eq i64 %15, 0
  br i1 %.not.i.i, label %18, label %16

16:                                               ; preds = %5
  %17 = getelementptr inbounds nuw i8, ptr %13, i64 16
  br label %RARRAY_AREF.exit17

18:                                               ; preds = %5
  %19 = getelementptr inbounds nuw i8, ptr %13, i64 32
  %20 = load ptr, ptr %19, align 8, !tbaa !35
  br label %RARRAY_AREF.exit17

RARRAY_AREF.exit17:                               ; preds = %16, %18
  %.in = phi ptr [ %17, %16 ], [ %20, %18 ]
  %21 = load i64, ptr %.in, align 8, !tbaa !36
  %22 = getelementptr i8, ptr %.in, i64 8
  %23 = load i64, ptr %22, align 8, !tbaa !36
  %24 = tail call i32 @rb_typeddata_is_kind_of(i64 noundef %23, ptr noundef nonnull @proc_data_type) #21
  %.not.i = icmp eq i32 %24, 0
  %25 = tail call i32 @rb_keyword_given_p() #21
  %26 = icmp ne i32 %25, 0
  %27 = zext i1 %26 to i32
  br i1 %.not.i, label %39, label %28

28:                                               ; preds = %RARRAY_AREF.exit17
  call void @llvm.lifetime.start.p0(i64 8, ptr nonnull %10)
  store i64 %23, ptr %10, align 8, !tbaa !36
  %29 = tail call align 8 ptr @llvm.threadlocal.address.p0(ptr align 8 @ruby_current_ec)
  %30 = load ptr, ptr %29, align 8, !tbaa !20
  %31 = inttoptr i64 %23 to ptr
  %32 = getelementptr inbounds nuw i8, ptr %31, i64 32
  %33 = load ptr, ptr %32, align 8, !tbaa !7
  %34 = icmp eq i64 %4, 4
  %35 = select i1 %34, i64 0, i64 %4
  %36 = tail call i64 @rb_vm_invoke_proc(ptr noundef %30, ptr noundef %33, i32 noundef %2, ptr noundef %3, i32 noundef %27, i64 noundef %35) #21
  call void @llvm.lifetime.start.p0(i64 8, ptr nonnull %11) #21
  store ptr %10, ptr %11, align 8, !tbaa !44
  call void asm sideeffect "", "*m,~{dirflag},~{fpsr},~{flags}"(ptr nonnull elementtype(ptr) %11) #21, !srcloc !47
  %37 = load ptr, ptr %11, align 8, !tbaa !44
  call void @llvm.lifetime.end.p0(i64 8, ptr nonnull %11) #21
  %38 = load volatile i64, ptr %37, align 8, !tbaa !36
  call void @llvm.lifetime.end.p0(i64 8, ptr nonnull %10)
  br label %41

39:                                               ; preds = %RARRAY_AREF.exit17
  %40 = tail call i64 @rb_funcall_with_block_kw(i64 noundef %23, i64 noundef 3457, i32 noundef %2, ptr noundef %3, i64 noundef %4, i32 noundef %27) #21
  br label %41

41:                                               ; preds = %39, %28
  %42 = phi i64 [ %40, %39 ], [ %36, %28 ]
  store i64 %42, ptr %12, align 8, !tbaa !36
  %43 = call i32 @rb_typeddata_is_kind_of(i64 noundef %21, ptr noundef nonnull @proc_data_type) #21
  %.not.i18 = icmp eq i32 %43, 0
  br i1 %.not.i18, label %73, label %44

44:                                               ; preds = %41
  %45 = call i64 (i64, ...) @rb_ary_new_from_args(i64 noundef 1, i64 noundef %42) #21
  call void @llvm.lifetime.start.p0(i64 8, ptr nonnull %6)
  call void @llvm.lifetime.start.p0(i64 8, ptr nonnull %7)
  store i64 %21, ptr %6, align 8, !tbaa !36
  store i64 %45, ptr %7, align 8, !tbaa !36
  %46 = inttoptr i64 %45 to ptr
  %47 = load i64, ptr %46, align 8, !tbaa !42
  %48 = and i64 %47, 8192
  %.not.i.i.i = icmp eq i64 %48, 0
  br i1 %.not.i.i.i, label %rb_array_len.exit.i.i, label %53

rb_array_len.exit.i.i:                            ; preds = %44
  %49 = getelementptr inbounds nuw i8, ptr %46, i64 16
  %50 = load i64, ptr %49, align 8, !tbaa !35
  %or.cond.i.i.i = icmp ugt i64 %50, 2147483647
  br i1 %or.cond.i.i.i, label %51, label %58

51:                                               ; preds = %rb_array_len.exit.i.i
  %52 = load i64, ptr @rb_eArgError, align 8, !tbaa !36
  call void (i64, ptr, ...) @rb_raise(i64 noundef %52, ptr noundef nonnull @.str.71, i64 noundef %50) #22
  unreachable

53:                                               ; preds = %44
  %54 = trunc i64 %47 to i32
  %55 = lshr i32 %54, 15
  %56 = and i32 %55, 127
  %57 = getelementptr inbounds nuw i8, ptr %46, i64 16
  br label %rb_proc_call.exit

58:                                               ; preds = %rb_array_len.exit.i.i
  %59 = trunc nuw nsw i64 %50 to i32
  %60 = getelementptr inbounds nuw i8, ptr %46, i64 32
  %61 = load ptr, ptr %60, align 8, !tbaa !35
  br label %rb_proc_call.exit

rb_proc_call.exit:                                ; preds = %53, %58
  %62 = phi i32 [ %56, %53 ], [ %59, %58 ]
  %.0.i7.i.i = phi ptr [ %57, %53 ], [ %61, %58 ]
  %63 = inttoptr i64 %21 to ptr
  %64 = getelementptr inbounds nuw i8, ptr %63, i64 32
  %65 = load ptr, ptr %64, align 8, !tbaa !7
  %66 = call align 8 ptr @llvm.threadlocal.address.p0(ptr align 8 @ruby_current_ec)
  %67 = load ptr, ptr %66, align 8, !tbaa !20
  %68 = call i64 @rb_vm_invoke_proc(ptr noundef %67, ptr noundef %65, i32 noundef %62, ptr noundef %.0.i7.i.i, i32 noundef 0, i64 noundef 0) #21
  call void @llvm.lifetime.start.p0(i64 8, ptr nonnull %8) #21
  store ptr %6, ptr %8, align 8, !tbaa !44
  call void asm sideeffect "", "*m,~{dirflag},~{fpsr},~{flags}"(ptr nonnull elementtype(ptr) %8) #21, !srcloc !45
  %69 = load ptr, ptr %8, align 8, !tbaa !44
  call void @llvm.lifetime.end.p0(i64 8, ptr nonnull %8) #21
  %70 = load volatile i64, ptr %69, align 8, !tbaa !36
  call void @llvm.lifetime.start.p0(i64 8, ptr nonnull %9) #21
  store ptr %7, ptr %9, align 8, !tbaa !44
  call void asm sideeffect "", "*m,~{dirflag},~{fpsr},~{flags}"(ptr nonnull elementtype(ptr) %9) #21, !srcloc !46
  %71 = load ptr, ptr %9, align 8, !tbaa !44
  call void @llvm.lifetime.end.p0(i64 8, ptr nonnull %9) #21
  %72 = load volatile i64, ptr %71, align 8, !tbaa !36
  call void @llvm.lifetime.end.p0(i64 8, ptr nonnull %6)
  call void @llvm.lifetime.end.p0(i64 8, ptr nonnull %7)
  br label %75

73:                                               ; preds = %41
  %74 = call i64 @rb_funcallv(i64 noundef %21, i64 noundef 3457, i32 noundef 1, ptr noundef nonnull %12) #21
  br label %75

75:                                               ; preds = %73, %rb_proc_call.exit
  %.0 = phi i64 [ %68, %rb_proc_call.exit ], [ %74, %73 ]
  call void @llvm.lifetime.end.p0(i64 8, ptr nonnull %12) #21
  ret i64 %.0
}